

Microchip MPLAB XC8 Assembler V2.40 build 20220703182018 
                                                                                               Tue Aug 01 21:55:20 2023

Microchip MPLAB XC8 C Compiler v2.40 (Free license) build 20220703182018 Og1 
     1                           	processor	16F887
     2                           	pagewidth 120
     3                           	opt	flic
     4                           	psect	cinit,global,class=CODE,merge=1,delta=2
     5                           	psect	bssCOMMON,global,class=COMMON,space=1,delta=1,noexec
     6                           	psect	cstackCOMMON,global,class=COMMON,space=1,delta=1,noexec
     7                           	psect	cstackBANK0,global,class=BANK0,space=1,delta=1,noexec
     8                           	psect	maintext,global,class=CODE,split=1,delta=2
     9                           	psect	text1,local,class=CODE,merge=1,delta=2
    10                           	psect	text2,local,class=CODE,merge=1,delta=2
    11                           	psect	text3,local,class=CODE,merge=1,delta=2
    12                           	psect	text4,local,class=CODE,merge=1,delta=2
    13                           	psect	text5,local,class=CODE,merge=1,delta=2
    14                           	psect	text6,local,class=CODE,merge=1,delta=2
    15                           	psect	text7,local,class=CODE,merge=1,delta=2
    16                           	psect	text8,local,class=CODE,merge=1,delta=2
    17                           	psect	intentry,global,class=CODE,delta=2
    18                           	psect	text9,local,class=CODE,merge=1,delta=2
    19                           	psect	text10,local,class=CODE,merge=1,delta=2
    20                           	psect	text11,local,class=CODE,merge=1,delta=2
    21                           	psect	text12,local,class=CODE,merge=1,delta=2
    22                           	psect	idloc,global,abs,ovrld,class=IDLOC,space=5,delta=2,noexec
    23                           	psect	config,global,abs,ovrld,class=CONFIG,space=4,delta=2,noexec
    24                           	dabs	1,0x7E,2
    25     0000                     
    26                           ; Version 2.40
    27                           ; Generated 17/11/2021 GMT
    28                           ; 
    29                           ; Copyright © 2021, Microchip Technology Inc. and its subsidiaries ("Microchip")
    30                           ; All rights reserved.
    31                           ; 
    32                           ; This software is developed by Microchip Technology Inc. and its subsidiaries ("Microch
      +                          ip").
    33                           ; 
    34                           ; Redistribution and use in source and binary forms, with or without modification, are
    35                           ; permitted provided that the following conditions are met:
    36                           ; 
    37                           ;     1. Redistributions of source code must retain the above copyright notice, this lis
      +                          t of
    38                           ;        conditions and the following disclaimer.
    39                           ; 
    40                           ;     2. Redistributions in binary form must reproduce the above copyright notice, this 
      +                          list
    41                           ;        of conditions and the following disclaimer in the documentation and/or other
    42                           ;        materials provided with the distribution. Publication is not required when
    43                           ;        this file is used in an embedded application.
    44                           ; 
    45                           ;     3. Microchip's name may not be used to endorse or promote products derived from th
      +                          is
    46                           ;        software without specific prior written permission.
    47                           ; 
    48                           ; THIS SOFTWARE IS PROVIDED BY MICROCHIP "AS IS" AND ANY EXPRESS OR IMPLIED WARRANTIES,
    49                           ; INCLUDING, BUT NOT LIMITED TO, THE IMPLIED WARRANTIES OF MERCHANTABILITY AND FITNESS F
      +                          OR
    50                           ; PURPOSE ARE DISCLAIMED.  IN NO EVENT SHALL MICROCHIP BE LIABLE FOR ANY DIRECT, INDIREC
      +                          T,
    51                           ; INCIDENTAL, SPECIAL, EXEMPLARY, OR CONSEQUENTIAL DAMAGES (INCLUDING BUT NOT LIMITED TO
    52                           ; PROCUREMENT OF SUBSTITUTE GOODS OR SERVICES; LOSS OF USE, DATA OR PROFITS; OR BUSINESS
    53                           ; INTERRUPTION) HOWSOEVER CAUSED AND ON ANY THEORY OF LIABILITY, WHETHER IN CONTRACT, ST
      +                          RICT
    54                           ; LIABILITY, OR TORT (INCLUDING NEGLIGENCE OR OTHERWISE) ARISING IN ANY WAY OUT OF THE U
      +                          SE OF
    55                           ; THIS SOFTWARE, EVEN IF ADVISED OF THE POSSIBILITY OF SUCH DAMAGE.
    56                           ; 
    57                           ; 
    58                           ; Code-generator required, PIC16F887 Definitions
    59                           ; 
    60                           ; SFR Addresses
    61     0000                     	;# 
    62     0001                     	;# 
    63     0002                     	;# 
    64     0003                     	;# 
    65     0004                     	;# 
    66     0005                     	;# 
    67     0006                     	;# 
    68     0007                     	;# 
    69     0008                     	;# 
    70     0009                     	;# 
    71     000A                     	;# 
    72     000B                     	;# 
    73     000C                     	;# 
    74     000D                     	;# 
    75     000E                     	;# 
    76     000E                     	;# 
    77     000F                     	;# 
    78     0010                     	;# 
    79     0011                     	;# 
    80     0012                     	;# 
    81     0013                     	;# 
    82     0014                     	;# 
    83     0015                     	;# 
    84     0015                     	;# 
    85     0016                     	;# 
    86     0017                     	;# 
    87     0018                     	;# 
    88     0019                     	;# 
    89     001A                     	;# 
    90     001B                     	;# 
    91     001B                     	;# 
    92     001C                     	;# 
    93     001D                     	;# 
    94     001E                     	;# 
    95     001F                     	;# 
    96     0081                     	;# 
    97     0085                     	;# 
    98     0086                     	;# 
    99     0087                     	;# 
   100     0088                     	;# 
   101     0089                     	;# 
   102     008C                     	;# 
   103     008D                     	;# 
   104     008E                     	;# 
   105     008F                     	;# 
   106     0090                     	;# 
   107     0091                     	;# 
   108     0092                     	;# 
   109     0093                     	;# 
   110     0093                     	;# 
   111     0093                     	;# 
   112     0094                     	;# 
   113     0095                     	;# 
   114     0096                     	;# 
   115     0097                     	;# 
   116     0098                     	;# 
   117     0099                     	;# 
   118     009A                     	;# 
   119     009B                     	;# 
   120     009C                     	;# 
   121     009D                     	;# 
   122     009E                     	;# 
   123     009F                     	;# 
   124     0105                     	;# 
   125     0107                     	;# 
   126     0108                     	;# 
   127     0109                     	;# 
   128     010C                     	;# 
   129     010C                     	;# 
   130     010D                     	;# 
   131     010E                     	;# 
   132     010F                     	;# 
   133     0185                     	;# 
   134     0187                     	;# 
   135     0188                     	;# 
   136     0189                     	;# 
   137     018C                     	;# 
   138     018D                     	;# 
   139     0000                     	;# 
   140     0001                     	;# 
   141     0002                     	;# 
   142     0003                     	;# 
   143     0004                     	;# 
   144     0005                     	;# 
   145     0006                     	;# 
   146     0007                     	;# 
   147     0008                     	;# 
   148     0009                     	;# 
   149     000A                     	;# 
   150     000B                     	;# 
   151     000C                     	;# 
   152     000D                     	;# 
   153     000E                     	;# 
   154     000E                     	;# 
   155     000F                     	;# 
   156     0010                     	;# 
   157     0011                     	;# 
   158     0012                     	;# 
   159     0013                     	;# 
   160     0014                     	;# 
   161     0015                     	;# 
   162     0015                     	;# 
   163     0016                     	;# 
   164     0017                     	;# 
   165     0018                     	;# 
   166     0019                     	;# 
   167     001A                     	;# 
   168     001B                     	;# 
   169     001B                     	;# 
   170     001C                     	;# 
   171     001D                     	;# 
   172     001E                     	;# 
   173     001F                     	;# 
   174     0081                     	;# 
   175     0085                     	;# 
   176     0086                     	;# 
   177     0087                     	;# 
   178     0088                     	;# 
   179     0089                     	;# 
   180     008C                     	;# 
   181     008D                     	;# 
   182     008E                     	;# 
   183     008F                     	;# 
   184     0090                     	;# 
   185     0091                     	;# 
   186     0092                     	;# 
   187     0093                     	;# 
   188     0093                     	;# 
   189     0093                     	;# 
   190     0094                     	;# 
   191     0095                     	;# 
   192     0096                     	;# 
   193     0097                     	;# 
   194     0098                     	;# 
   195     0099                     	;# 
   196     009A                     	;# 
   197     009B                     	;# 
   198     009C                     	;# 
   199     009D                     	;# 
   200     009E                     	;# 
   201     009F                     	;# 
   202     0105                     	;# 
   203     0107                     	;# 
   204     0108                     	;# 
   205     0109                     	;# 
   206     010C                     	;# 
   207     010C                     	;# 
   208     010D                     	;# 
   209     010E                     	;# 
   210     010F                     	;# 
   211     0185                     	;# 
   212     0187                     	;# 
   213     0188                     	;# 
   214     0189                     	;# 
   215     018C                     	;# 
   216     018D                     	;# 
   217     0000                     	;# 
   218     0001                     	;# 
   219     0002                     	;# 
   220     0003                     	;# 
   221     0004                     	;# 
   222     0005                     	;# 
   223     0006                     	;# 
   224     0007                     	;# 
   225     0008                     	;# 
   226     0009                     	;# 
   227     000A                     	;# 
   228     000B                     	;# 
   229     000C                     	;# 
   230     000D                     	;# 
   231     000E                     	;# 
   232     000E                     	;# 
   233     000F                     	;# 
   234     0010                     	;# 
   235     0011                     	;# 
   236     0012                     	;# 
   237     0013                     	;# 
   238     0014                     	;# 
   239     0015                     	;# 
   240     0015                     	;# 
   241     0016                     	;# 
   242     0017                     	;# 
   243     0018                     	;# 
   244     0019                     	;# 
   245     001A                     	;# 
   246     001B                     	;# 
   247     001B                     	;# 
   248     001C                     	;# 
   249     001D                     	;# 
   250     001E                     	;# 
   251     001F                     	;# 
   252     0081                     	;# 
   253     0085                     	;# 
   254     0086                     	;# 
   255     0087                     	;# 
   256     0088                     	;# 
   257     0089                     	;# 
   258     008C                     	;# 
   259     008D                     	;# 
   260     008E                     	;# 
   261     008F                     	;# 
   262     0090                     	;# 
   263     0091                     	;# 
   264     0092                     	;# 
   265     0093                     	;# 
   266     0093                     	;# 
   267     0093                     	;# 
   268     0094                     	;# 
   269     0095                     	;# 
   270     0096                     	;# 
   271     0097                     	;# 
   272     0098                     	;# 
   273     0099                     	;# 
   274     009A                     	;# 
   275     009B                     	;# 
   276     009C                     	;# 
   277     009D                     	;# 
   278     009E                     	;# 
   279     009F                     	;# 
   280     0105                     	;# 
   281     0107                     	;# 
   282     0108                     	;# 
   283     0109                     	;# 
   284     010C                     	;# 
   285     010C                     	;# 
   286     010D                     	;# 
   287     010E                     	;# 
   288     010F                     	;# 
   289     0185                     	;# 
   290     0187                     	;# 
   291     0188                     	;# 
   292     0189                     	;# 
   293     018C                     	;# 
   294     018D                     	;# 
   295     0000                     	;# 
   296     0001                     	;# 
   297     0002                     	;# 
   298     0003                     	;# 
   299     0004                     	;# 
   300     0005                     	;# 
   301     0006                     	;# 
   302     0007                     	;# 
   303     0008                     	;# 
   304     0009                     	;# 
   305     000A                     	;# 
   306     000B                     	;# 
   307     000C                     	;# 
   308     000D                     	;# 
   309     000E                     	;# 
   310     000E                     	;# 
   311     000F                     	;# 
   312     0010                     	;# 
   313     0011                     	;# 
   314     0012                     	;# 
   315     0013                     	;# 
   316     0014                     	;# 
   317     0015                     	;# 
   318     0015                     	;# 
   319     0016                     	;# 
   320     0017                     	;# 
   321     0018                     	;# 
   322     0019                     	;# 
   323     001A                     	;# 
   324     001B                     	;# 
   325     001B                     	;# 
   326     001C                     	;# 
   327     001D                     	;# 
   328     001E                     	;# 
   329     001F                     	;# 
   330     0081                     	;# 
   331     0085                     	;# 
   332     0086                     	;# 
   333     0087                     	;# 
   334     0088                     	;# 
   335     0089                     	;# 
   336     008C                     	;# 
   337     008D                     	;# 
   338     008E                     	;# 
   339     008F                     	;# 
   340     0090                     	;# 
   341     0091                     	;# 
   342     0092                     	;# 
   343     0093                     	;# 
   344     0093                     	;# 
   345     0093                     	;# 
   346     0094                     	;# 
   347     0095                     	;# 
   348     0096                     	;# 
   349     0097                     	;# 
   350     0098                     	;# 
   351     0099                     	;# 
   352     009A                     	;# 
   353     009B                     	;# 
   354     009C                     	;# 
   355     009D                     	;# 
   356     009E                     	;# 
   357     009F                     	;# 
   358     0105                     	;# 
   359     0107                     	;# 
   360     0108                     	;# 
   361     0109                     	;# 
   362     010C                     	;# 
   363     010C                     	;# 
   364     010D                     	;# 
   365     010E                     	;# 
   366     010F                     	;# 
   367     0185                     	;# 
   368     0187                     	;# 
   369     0188                     	;# 
   370     0189                     	;# 
   371     018C                     	;# 
   372     018D                     	;# 
   373     0000                     	;# 
   374     0001                     	;# 
   375     0002                     	;# 
   376     0003                     	;# 
   377     0004                     	;# 
   378     0005                     	;# 
   379     0006                     	;# 
   380     0007                     	;# 
   381     0008                     	;# 
   382     0009                     	;# 
   383     000A                     	;# 
   384     000B                     	;# 
   385     000C                     	;# 
   386     000D                     	;# 
   387     000E                     	;# 
   388     000E                     	;# 
   389     000F                     	;# 
   390     0010                     	;# 
   391     0011                     	;# 
   392     0012                     	;# 
   393     0013                     	;# 
   394     0014                     	;# 
   395     0015                     	;# 
   396     0015                     	;# 
   397     0016                     	;# 
   398     0017                     	;# 
   399     0018                     	;# 
   400     0019                     	;# 
   401     001A                     	;# 
   402     001B                     	;# 
   403     001B                     	;# 
   404     001C                     	;# 
   405     001D                     	;# 
   406     001E                     	;# 
   407     001F                     	;# 
   408     0081                     	;# 
   409     0085                     	;# 
   410     0086                     	;# 
   411     0087                     	;# 
   412     0088                     	;# 
   413     0089                     	;# 
   414     008C                     	;# 
   415     008D                     	;# 
   416     008E                     	;# 
   417     008F                     	;# 
   418     0090                     	;# 
   419     0091                     	;# 
   420     0092                     	;# 
   421     0093                     	;# 
   422     0093                     	;# 
   423     0093                     	;# 
   424     0094                     	;# 
   425     0095                     	;# 
   426     0096                     	;# 
   427     0097                     	;# 
   428     0098                     	;# 
   429     0099                     	;# 
   430     009A                     	;# 
   431     009B                     	;# 
   432     009C                     	;# 
   433     009D                     	;# 
   434     009E                     	;# 
   435     009F                     	;# 
   436     0105                     	;# 
   437     0107                     	;# 
   438     0108                     	;# 
   439     0109                     	;# 
   440     010C                     	;# 
   441     010C                     	;# 
   442     010D                     	;# 
   443     010E                     	;# 
   444     010F                     	;# 
   445     0185                     	;# 
   446     0187                     	;# 
   447     0188                     	;# 
   448     0189                     	;# 
   449     018C                     	;# 
   450     018D                     	;# 
   451     0008                     _PORTD	set	8
   452     000B                     _INTCONbits	set	11
   453     0007                     _PORTC	set	7
   454     0006                     _PORTB	set	6
   455     0013                     _SSPBUF	set	19
   456     0014                     _SSPCON	set	20
   457     001E                     _ADRESH	set	30
   458     000C                     _PIR1bits	set	12
   459     001F                     _ADCON0bits	set	31
   460     0031                     _RB1	set	49
   461     0030                     _RB0	set	48
   462     0066                     _ADIF	set	102
   463     0063                     _SSPIF	set	99
   464     0096                     _IOCBbits	set	150
   465     008F                     _OSCCONbits	set	143
   466     0095                     _WPUBbits	set	149
   467     0081                     _OPTION_REGbits	set	129
   468     0088                     _TRISD	set	136
   469     0086                     _TRISB	set	134
   470     0085                     _TRISA	set	133
   471     0094                     _SSPSTATbits	set	148
   472     0094                     _SSPSTAT	set	148
   473     008C                     _PIE1bits	set	140
   474     009F                     _ADCON1bits	set	159
   475     043B                     _TRISC3	set	1083
   476     043D                     _TRISC5	set	1085
   477     0189                     _ANSELH	set	393
   478     0188                     _ANSEL	set	392
   479                           
   480                           	psect	cinit
   481     000F                     start_initialization:	
   482                           ; #config settings
   483                           
   484     000F                     __initialization:
   485                           
   486                           ; Clear objects allocated to COMMON
   487     000F  01F8               	clrf	__pbssCOMMON& (0+127)
   488     0010  01F9               	clrf	(__pbssCOMMON+1)& (0+127)
   489     0011                     end_of_initialization:	
   490                           ;End of C runtime variable initialization code
   491                           
   492     0011                     __end_of__initialization:
   493     0011  0183               	clrf	3
   494     0012  120A  118A  291F   	ljmp	_main	;jump to C main() function
   495                           
   496                           	psect	bssCOMMON
   497     0078                     __pbssCOMMON:
   498     0078                     _contador:
   499     0078                     	ds	1
   500     0079                     _tipo:
   501     0079                     	ds	1
   502                           
   503                           	psect	cstackCOMMON
   504     0070                     __pcstackCOMMON:
   505     0070                     ?_setup:
   506     0070                     ?_spiReceiveWait:	
   507                           ; 1 bytes @ 0x0
   508                           
   509     0070                     ??_spiReceiveWait:	
   510                           ; 1 bytes @ 0x0
   511                           
   512     0070                     ?_spiWrite:	
   513                           ; 1 bytes @ 0x0
   514                           
   515     0070                     ??_spiWrite:	
   516                           ; 1 bytes @ 0x0
   517                           
   518     0070                     ?_spiRead:	
   519                           ; 1 bytes @ 0x0
   520                           
   521     0070                     ??_spiRead:	
   522                           ; 1 bytes @ 0x0
   523                           
   524     0070                     ?_configPort:	
   525                           ; 1 bytes @ 0x0
   526                           
   527     0070                     ?_pullup:	
   528                           ; 1 bytes @ 0x0
   529                           
   530     0070                     ?_configIntbits:	
   531                           ; 1 bytes @ 0x0
   532                           
   533     0070                     ?_isr:	
   534                           ; 1 bytes @ 0x0
   535                           
   536     0070                     ?_main:	
   537                           ; 1 bytes @ 0x0
   538                           
   539     0070                     ?_adc_read:	
   540                           ; 1 bytes @ 0x0
   541                           
   542     0070                     spiWrite@dat:	
   543                           ; 2 bytes @ 0x0
   544                           
   545                           
   546                           ; 1 bytes @ 0x0
   547     0070                     	ds	2
   548     0072                     ??_adc_read:
   549                           
   550                           ; 1 bytes @ 0x2
   551     0072                     	ds	2
   552     0074                     ??_isr:
   553                           
   554                           ; 1 bytes @ 0x4
   555     0074                     	ds	4
   556                           
   557                           	psect	cstackBANK0
   558     0020                     __pcstackBANK0:
   559     0020                     ?_adc_init:
   560     0020                     ?_spiInit:	
   561                           ; 1 bytes @ 0x0
   562                           
   563     0020                     ??_configPort:	
   564                           ; 1 bytes @ 0x0
   565                           
   566     0020                     ??_pullup:	
   567                           ; 1 bytes @ 0x0
   568                           
   569     0020                     ??_configIntbits:	
   570                           ; 1 bytes @ 0x0
   571                           
   572     0020                     ?_configOsc:	
   573                           ; 1 bytes @ 0x0
   574                           
   575     0020                     spiInit@sDataSample:	
   576                           ; 1 bytes @ 0x0
   577                           
   578     0020                     adc_init@channel:	
   579                           ; 1 bytes @ 0x0
   580                           
   581     0020                     configOsc@freq:	
   582                           ; 2 bytes @ 0x0
   583                           
   584                           
   585                           ; 2 bytes @ 0x0
   586     0020                     	ds	1
   587     0021                     spiInit@sClockIdle:
   588                           
   589                           ; 1 bytes @ 0x1
   590     0021                     	ds	1
   591     0022                     ??_configOsc:
   592     0022                     spiInit@sTransmitEdge:	
   593                           ; 1 bytes @ 0x2
   594                           
   595     0022                     adc_init@clock:	
   596                           ; 1 bytes @ 0x2
   597                           
   598                           
   599                           ; 2 bytes @ 0x2
   600     0022                     	ds	1
   601     0023                     ??_spiInit:
   602     0023                     spiInit@sType:	
   603                           ; 1 bytes @ 0x3
   604                           
   605                           
   606                           ; 1 bytes @ 0x3
   607     0023                     	ds	1
   608     0024                     ??_adc_init:
   609                           
   610                           ; 1 bytes @ 0x4
   611     0024                     	ds	2
   612     0026                     ??_setup:
   613     0026                     ??_main:	
   614                           ; 1 bytes @ 0x6
   615                           
   616                           
   617                           ; 1 bytes @ 0x6
   618     0026                     	ds	3
   619                           
   620                           	psect	maintext
   621     011F                     __pmaintext:	
   622 ;;
   623 ;;Main: autosize = 0, tempsize = 3, incstack = 0, save=0
   624 ;;
   625 ;; *************** function _main *****************
   626 ;; Defined at:
   627 ;;		line 85 in file "slaveSpi.c"
   628 ;; Parameters:    Size  Location     Type
   629 ;;		None
   630 ;; Auto vars:     Size  Location     Type
   631 ;;		None
   632 ;; Return value:  Size  Location     Type
   633 ;;                  1    wreg      void 
   634 ;; Registers used:
   635 ;;		wreg, status,2, status,0, pclath, cstack
   636 ;; Tracked objects:
   637 ;;		On entry : B00/0
   638 ;;		On exit  : 0/0
   639 ;;		Unchanged: 0/0
   640 ;; Data sizes:     COMMON   BANK0   BANK1   BANK3   BANK2
   641 ;;      Params:         0       0       0       0       0
   642 ;;      Locals:         0       0       0       0       0
   643 ;;      Temps:          0       3       0       0       0
   644 ;;      Totals:         0       3       0       0       0
   645 ;;Total ram usage:        3 bytes
   646 ;; Hardware stack levels required when called: 5
   647 ;; This function calls:
   648 ;;		_setup
   649 ;; This function is called by:
   650 ;;		Startup code after reset
   651 ;; This function uses a non-reentrant model
   652 ;;
   653                           
   654     011F                     _main:	
   655                           ;psect for function _main
   656                           
   657     011F                     l1190:	
   658                           ;incstack = 0
   659                           ; Regs used in _main: [wreg+status,2+status,0+pclath+cstack]
   660                           
   661                           
   662                           ;slaveSpi.c: 86:     setup();
   663     011F  120A  118A  21A3  120A  118A  	fcall	_setup
   664     0124                     l1192:
   665                           
   666                           ;slaveSpi.c: 90:             if(ADCON0bits.GO == 0){
   667     0124  1283               	bcf	3,5	;RP0=0, select bank0
   668     0125  1303               	bcf	3,6	;RP1=0, select bank0
   669     0126  189F               	btfsc	31,1	;volatile
   670     0127  2929               	goto	u541
   671     0128  292A               	goto	u540
   672     0129                     u541:
   673     0129  2938               	goto	l1198
   674     012A                     u540:
   675     012A                     l1194:
   676                           
   677                           ;slaveSpi.c: 91:                 _delay((unsigned long)((10)*(8000000/4000.0)));
   678     012A  301A               	movlw	26
   679     012B  1283               	bcf	3,5	;RP0=0, select bank0
   680     012C  1303               	bcf	3,6	;RP1=0, select bank0
   681     012D  00A7               	movwf	??_main+1
   682     012E  30F7               	movlw	247
   683     012F  00A6               	movwf	??_main
   684     0130                     u597:
   685     0130  0BA6               	decfsz	??_main,f
   686     0131  2930               	goto	u597
   687     0132  0BA7               	decfsz	??_main+1,f
   688     0133  2930               	goto	u597
   689     0134  2935               	nop2
   690     0135                     l1196:
   691                           
   692                           ;slaveSpi.c: 92:                 ADCON0bits.GO = 1;
   693     0135  1283               	bcf	3,5	;RP0=0, select bank0
   694     0136  1303               	bcf	3,6	;RP1=0, select bank0
   695     0137  149F               	bsf	31,1	;volatile
   696     0138                     l1198:
   697                           
   698                           ;slaveSpi.c: 96:             if(RB0 == 0){
   699     0138  1806               	btfsc	6,0	;volatile
   700     0139  293B               	goto	u551
   701     013A  293C               	goto	u550
   702     013B                     u551:
   703     013B  2945               	goto	l198
   704     013C                     u550:
   705     013C                     l199:
   706     013C  1C06               	btfss	6,0	;volatile
   707     013D  293F               	goto	u561
   708     013E  2940               	goto	u560
   709     013F                     u561:
   710     013F  293C               	goto	l199
   711     0140                     u560:
   712     0140                     l1202:
   713                           
   714                           ;slaveSpi.c: 98:                 contador++;
   715     0140  3001               	movlw	1
   716     0141  00A6               	movwf	??_main
   717     0142  0826               	movf	??_main,w
   718     0143  07F8               	addwf	_contador,f
   719                           
   720                           ;slaveSpi.c: 99:             }
   721     0144  294F               	goto	l1208
   722     0145                     l198:	
   723                           ;slaveSpi.c: 100:             else if(RB1 == 0){
   724                           
   725     0145  1886               	btfsc	6,1	;volatile
   726     0146  2948               	goto	u571
   727     0147  2949               	goto	u570
   728     0148                     u571:
   729     0148  294F               	goto	l1208
   730     0149                     u570:
   731     0149                     l204:
   732     0149  1C86               	btfss	6,1	;volatile
   733     014A  294C               	goto	u581
   734     014B  294D               	goto	u580
   735     014C                     u581:
   736     014C  2949               	goto	l204
   737     014D                     u580:
   738     014D                     l1206:
   739                           
   740                           ;slaveSpi.c: 102:                 contador--;
   741     014D  3001               	movlw	1
   742     014E  02F8               	subwf	_contador,f
   743     014F                     l1208:
   744                           
   745                           ;slaveSpi.c: 105:        _delay((unsigned long)((250)*(8000000/4000.0)));
   746     014F  3003               	movlw	3
   747     0150  1283               	bcf	3,5	;RP0=0, select bank0
   748     0151  1303               	bcf	3,6	;RP1=0, select bank0
   749     0152  00A8               	movwf	??_main+2
   750     0153  308A               	movlw	138
   751     0154  00A7               	movwf	??_main+1
   752     0155  3055               	movlw	85
   753     0156  00A6               	movwf	??_main
   754     0157                     u607:
   755     0157  0BA6               	decfsz	??_main,f
   756     0158  2957               	goto	u607
   757     0159  0BA7               	decfsz	??_main+1,f
   758     015A  2957               	goto	u607
   759     015B  0BA8               	decfsz	??_main+2,f
   760     015C  2957               	goto	u607
   761     015D  2924               	goto	l1192
   762     015E  120A  118A  280C   	ljmp	start
   763     0161                     __end_of_main:
   764                           
   765                           	psect	text1
   766     01A3                     __ptext1:	
   767 ;; *************** function _setup *****************
   768 ;; Defined at:
   769 ;;		line 115 in file "slaveSpi.c"
   770 ;; Parameters:    Size  Location     Type
   771 ;;		None
   772 ;; Auto vars:     Size  Location     Type
   773 ;;		None
   774 ;; Return value:  Size  Location     Type
   775 ;;                  1    wreg      void 
   776 ;; Registers used:
   777 ;;		wreg, status,2, status,0, pclath, cstack
   778 ;; Tracked objects:
   779 ;;		On entry : 0/0
   780 ;;		On exit  : 0/0
   781 ;;		Unchanged: 0/0
   782 ;; Data sizes:     COMMON   BANK0   BANK1   BANK3   BANK2
   783 ;;      Params:         0       0       0       0       0
   784 ;;      Locals:         0       0       0       0       0
   785 ;;      Temps:          0       0       0       0       0
   786 ;;      Totals:         0       0       0       0       0
   787 ;;Total ram usage:        0 bytes
   788 ;; Hardware stack levels used: 1
   789 ;; Hardware stack levels required when called: 4
   790 ;; This function calls:
   791 ;;		_adc_init
   792 ;;		_configIntbits
   793 ;;		_configOsc
   794 ;;		_configPort
   795 ;;		_pullup
   796 ;;		_spiInit
   797 ;; This function is called by:
   798 ;;		_main
   799 ;; This function uses a non-reentrant model
   800 ;;
   801                           
   802     01A3                     _setup:	
   803                           ;psect for function _setup
   804                           
   805     01A3                     l1156:	
   806                           ;incstack = 0
   807                           ; Regs used in _setup: [wreg+status,2+status,0+pclath+cstack]
   808                           
   809                           
   810                           ;slaveSpi.c: 117:     configOsc(8);
   811     01A3  3008               	movlw	8
   812     01A4  1283               	bcf	3,5	;RP0=0, select bank0
   813     01A5  1303               	bcf	3,6	;RP1=0, select bank0
   814     01A6  00A0               	movwf	configOsc@freq
   815     01A7  3000               	movlw	0
   816     01A8  00A1               	movwf	configOsc@freq+1
   817     01A9  120A  118A  20AC  120A  118A  	fcall	_configOsc
   818                           
   819                           ;slaveSpi.c: 118:     configPort();
   820     01AE  120A  118A  21F5  120A  118A  	fcall	_configPort
   821     01B3                     l1158:
   822                           
   823                           ;slaveSpi.c: 119:     configIntbits();
   824     01B3  120A  118A  2210  120A  118A  	fcall	_configIntbits
   825     01B8                     l1160:
   826                           
   827                           ;slaveSpi.c: 120:     pullup();
   828     01B8  120A  118A  2229  120A  118A  	fcall	_pullup
   829     01BD                     l1162:
   830                           
   831                           ;slaveSpi.c: 121:     adc_init(0,8);
   832     01BD  3000               	movlw	0
   833     01BE  1283               	bcf	3,5	;RP0=0, select bank0
   834     01BF  1303               	bcf	3,6	;RP1=0, select bank0
   835     01C0  00A0               	movwf	adc_init@channel
   836     01C1  00A1               	movwf	adc_init@channel+1
   837     01C2  3008               	movlw	8
   838     01C3  00A2               	movwf	adc_init@clock
   839     01C4  3000               	movlw	0
   840     01C5  00A3               	movwf	adc_init@clock+1
   841     01C6  120A  118A  2015  120A  118A  	fcall	_adc_init
   842     01CB                     l1164:
   843                           
   844                           ;slaveSpi.c: 122:     spiInit(SPI_SLAVE_SS_EN, SPI_DATA_SAMPLE_MIDDLE, SPI_CLOCK_IDLE_LO
      +                          W, SPI_IDLE_2_ACTIVE);
   845     01CB  1283               	bcf	3,5	;RP0=0, select bank0
   846     01CC  1303               	bcf	3,6	;RP1=0, select bank0
   847     01CD  01A0               	clrf	spiInit@sDataSample
   848     01CE  01A1               	clrf	spiInit@sClockIdle
   849     01CF  01A2               	clrf	spiInit@sTransmitEdge
   850     01D0  3024               	movlw	36
   851     01D1  120A  118A  21D7  120A  118A  	fcall	_spiInit
   852     01D6                     l212:
   853     01D6  0008               	return
   854     01D7                     __end_of_setup:
   855                           
   856                           	psect	text2
   857     01D7                     __ptext2:	
   858 ;; *************** function _spiInit *****************
   859 ;; Defined at:
   860 ;;		line 4 in file "SPI.c"
   861 ;; Parameters:    Size  Location     Type
   862 ;;  sType           1    wreg     enum E1292
   863 ;;  sDataSample     1    0[BANK0 ] enum E1300
   864 ;;  sClockIdle      1    1[BANK0 ] enum E1304
   865 ;;  sTransmitEdg    1    2[BANK0 ] enum E1308
   866 ;; Auto vars:     Size  Location     Type
   867 ;;  sType           1    3[BANK0 ] enum E1292
   868 ;; Return value:  Size  Location     Type
   869 ;;                  1    wreg      void 
   870 ;; Registers used:
   871 ;;		wreg, status,2, status,0
   872 ;; Tracked objects:
   873 ;;		On entry : 0/0
   874 ;;		On exit  : 0/0
   875 ;;		Unchanged: 0/0
   876 ;; Data sizes:     COMMON   BANK0   BANK1   BANK3   BANK2
   877 ;;      Params:         0       3       0       0       0
   878 ;;      Locals:         0       1       0       0       0
   879 ;;      Temps:          0       0       0       0       0
   880 ;;      Totals:         0       4       0       0       0
   881 ;;Total ram usage:        4 bytes
   882 ;; Hardware stack levels used: 1
   883 ;; Hardware stack levels required when called: 3
   884 ;; This function calls:
   885 ;;		Nothing
   886 ;; This function is called by:
   887 ;;		_setup
   888 ;; This function uses a non-reentrant model
   889 ;;
   890                           
   891     01D7                     _spiInit:	
   892                           ;psect for function _spiInit
   893                           
   894                           
   895                           ;incstack = 0
   896                           ; Regs used in _spiInit: [wreg+status,2+status,0]
   897                           ;spiInit@sType stored from wreg
   898     01D7  1283               	bcf	3,5	;RP0=0, select bank0
   899     01D8  1303               	bcf	3,6	;RP1=0, select bank0
   900     01D9  00A3               	movwf	spiInit@sType
   901     01DA                     l1082:
   902                           
   903                           ;SPI.c: 4: void spiInit(Spi_Type sType, Spi_Data_Sample sDataSample, Spi_Clock_Idle sClo
      +                          ckIdle, Spi_Transmit_Edge sTransmitEdge);SPI.c: 5: {;SPI.c: 6:     TRISC5 = 0;
   904     01DA  1683               	bsf	3,5	;RP0=1, select bank1
   905     01DB  1303               	bcf	3,6	;RP1=0, select bank1
   906     01DC  1287               	bcf	7,5	;volatile
   907                           
   908                           ;SPI.c: 7:     if(sType & 0b00000100)
   909     01DD  1283               	bcf	3,5	;RP0=0, select bank0
   910     01DE  1303               	bcf	3,6	;RP1=0, select bank0
   911     01DF  1D23               	btfss	spiInit@sType,2
   912     01E0  29E2               	goto	u421
   913     01E1  29E3               	goto	u420
   914     01E2                     u421:
   915     01E2  29E9               	goto	l1088
   916     01E3                     u420:
   917     01E3                     l1084:
   918                           
   919                           ;SPI.c: 8:     {;SPI.c: 9:         SSPSTAT = sTransmitEdge;
   920     01E3  0822               	movf	spiInit@sTransmitEdge,w
   921     01E4  1683               	bsf	3,5	;RP0=1, select bank1
   922     01E5  1303               	bcf	3,6	;RP1=0, select bank1
   923     01E6  0094               	movwf	20	;volatile
   924     01E7                     l1086:
   925                           
   926                           ;SPI.c: 10:         TRISC3 = 1;
   927     01E7  1587               	bsf	7,3	;volatile
   928                           
   929                           ;SPI.c: 11:     }
   930     01E8  29EF               	goto	l65
   931     01E9                     l1088:
   932                           
   933                           ;SPI.c: 13:     {;SPI.c: 14:         SSPSTAT = sDataSample | sTransmitEdge;
   934     01E9  0820               	movf	spiInit@sDataSample,w
   935     01EA  0422               	iorwf	spiInit@sTransmitEdge,w
   936     01EB  1683               	bsf	3,5	;RP0=1, select bank1
   937     01EC  1303               	bcf	3,6	;RP1=0, select bank1
   938     01ED  0094               	movwf	20	;volatile
   939     01EE                     l1090:
   940                           
   941                           ;SPI.c: 15:         TRISC3 = 0;
   942     01EE  1187               	bcf	7,3	;volatile
   943     01EF                     l65:	
   944                           ;SPI.c: 16:     }
   945                           
   946                           
   947                           ;SPI.c: 18:     SSPCON = sType | sClockIdle;
   948     01EF  1283               	bcf	3,5	;RP0=0, select bank0
   949     01F0  1303               	bcf	3,6	;RP1=0, select bank0
   950     01F1  0823               	movf	spiInit@sType,w
   951     01F2  0421               	iorwf	spiInit@sClockIdle,w
   952     01F3  0094               	movwf	20	;volatile
   953     01F4                     l66:
   954     01F4  0008               	return
   955     01F5                     __end_of_spiInit:
   956                           
   957                           	psect	text3
   958     0229                     __ptext3:	
   959 ;; *************** function _pullup *****************
   960 ;; Defined at:
   961 ;;		line 24 in file "config.c"
   962 ;; Parameters:    Size  Location     Type
   963 ;;		None
   964 ;; Auto vars:     Size  Location     Type
   965 ;;		None
   966 ;; Return value:  Size  Location     Type
   967 ;;                  1    wreg      void 
   968 ;; Registers used:
   969 ;;		wreg
   970 ;; Tracked objects:
   971 ;;		On entry : 0/0
   972 ;;		On exit  : 0/0
   973 ;;		Unchanged: 0/0
   974 ;; Data sizes:     COMMON   BANK0   BANK1   BANK3   BANK2
   975 ;;      Params:         0       0       0       0       0
   976 ;;      Locals:         0       0       0       0       0
   977 ;;      Temps:          0       0       0       0       0
   978 ;;      Totals:         0       0       0       0       0
   979 ;;Total ram usage:        0 bytes
   980 ;; Hardware stack levels used: 1
   981 ;; Hardware stack levels required when called: 3
   982 ;; This function calls:
   983 ;;		Nothing
   984 ;; This function is called by:
   985 ;;		_setup
   986 ;; This function uses a non-reentrant model
   987 ;;
   988                           
   989     0229                     _pullup:	
   990                           ;psect for function _pullup
   991                           
   992     0229                     l1108:	
   993                           ;incstack = 0
   994                           ; Regs used in _pullup: [wreg]
   995                           
   996                           
   997                           ;config.c: 25:     OPTION_REGbits.nRBPU = 0;
   998     0229  1683               	bsf	3,5	;RP0=1, select bank1
   999     022A  1303               	bcf	3,6	;RP1=0, select bank1
  1000     022B  1381               	bcf	1,7	;volatile
  1001     022C                     l1110:
  1002                           
  1003                           ;config.c: 26:     WPUBbits.WPUB = 0b11111111;
  1004     022C  30FF               	movlw	255
  1005     022D  0095               	movwf	21	;volatile
  1006     022E                     l117:
  1007     022E  0008               	return
  1008     022F                     __end_of_pullup:
  1009                           
  1010                           	psect	text4
  1011     01F5                     __ptext4:	
  1012 ;; *************** function _configPort *****************
  1013 ;; Defined at:
  1014 ;;		line 3 in file "config.c"
  1015 ;; Parameters:    Size  Location     Type
  1016 ;;		None
  1017 ;; Auto vars:     Size  Location     Type
  1018 ;;		None
  1019 ;; Return value:  Size  Location     Type
  1020 ;;                  1    wreg      void 
  1021 ;; Registers used:
  1022 ;;		wreg, status,2
  1023 ;; Tracked objects:
  1024 ;;		On entry : 0/0
  1025 ;;		On exit  : 0/0
  1026 ;;		Unchanged: 0/0
  1027 ;; Data sizes:     COMMON   BANK0   BANK1   BANK3   BANK2
  1028 ;;      Params:         0       0       0       0       0
  1029 ;;      Locals:         0       0       0       0       0
  1030 ;;      Temps:          0       0       0       0       0
  1031 ;;      Totals:         0       0       0       0       0
  1032 ;;Total ram usage:        0 bytes
  1033 ;; Hardware stack levels used: 1
  1034 ;; Hardware stack levels required when called: 3
  1035 ;; This function calls:
  1036 ;;		Nothing
  1037 ;; This function is called by:
  1038 ;;		_setup
  1039 ;; This function uses a non-reentrant model
  1040 ;;
  1041                           
  1042     01F5                     _configPort:	
  1043                           ;psect for function _configPort
  1044                           
  1045     01F5                     l1092:	
  1046                           ;incstack = 0
  1047                           ; Regs used in _configPort: [wreg+status,2]
  1048                           
  1049                           
  1050                           ;config.c: 5:     ANSEL = 0b00000001;
  1051     01F5  3001               	movlw	1
  1052     01F6  1683               	bsf	3,5	;RP0=1, select bank3
  1053     01F7  1703               	bsf	3,6	;RP1=1, select bank3
  1054     01F8  0088               	movwf	8	;volatile
  1055     01F9                     l1094:
  1056                           
  1057                           ;config.c: 6:     ANSELH = 0;
  1058     01F9  0189               	clrf	9	;volatile
  1059     01FA                     l1096:
  1060                           
  1061                           ;config.c: 9:     TRISA = 0b00100001;
  1062     01FA  3021               	movlw	33
  1063     01FB  1683               	bsf	3,5	;RP0=1, select bank1
  1064     01FC  1303               	bcf	3,6	;RP1=0, select bank1
  1065     01FD  0085               	movwf	5	;volatile
  1066     01FE                     l1098:
  1067                           
  1068                           ;config.c: 10:     TRISB = 0b11111111;
  1069     01FE  30FF               	movlw	255
  1070     01FF  0086               	movwf	6	;volatile
  1071     0200                     l1100:
  1072                           
  1073                           ;config.c: 11:     TRISD = 0b00000000;
  1074     0200  0188               	clrf	8	;volatile
  1075     0201                     l1102:
  1076                           
  1077                           ;config.c: 14:     PORTB = 0;
  1078     0201  1283               	bcf	3,5	;RP0=0, select bank0
  1079     0202  1303               	bcf	3,6	;RP1=0, select bank0
  1080     0203  0186               	clrf	6	;volatile
  1081     0204                     l1104:
  1082                           
  1083                           ;config.c: 15:     PORTC = 0;
  1084     0204  0187               	clrf	7	;volatile
  1085     0205                     l114:
  1086     0205  0008               	return
  1087     0206                     __end_of_configPort:
  1088                           
  1089                           	psect	text5
  1090     00AC                     __ptext5:	
  1091 ;; *************** function _configOsc *****************
  1092 ;; Defined at:
  1093 ;;		line 45 in file "config.c"
  1094 ;; Parameters:    Size  Location     Type
  1095 ;;  freq            2    0[BANK0 ] unsigned int 
  1096 ;; Auto vars:     Size  Location     Type
  1097 ;;		None
  1098 ;; Return value:  Size  Location     Type
  1099 ;;                  1    wreg      void 
  1100 ;; Registers used:
  1101 ;;		wreg, status,2, status,0
  1102 ;; Tracked objects:
  1103 ;;		On entry : 0/0
  1104 ;;		On exit  : 0/0
  1105 ;;		Unchanged: 0/0
  1106 ;; Data sizes:     COMMON   BANK0   BANK1   BANK3   BANK2
  1107 ;;      Params:         0       2       0       0       0
  1108 ;;      Locals:         0       0       0       0       0
  1109 ;;      Temps:          0       0       0       0       0
  1110 ;;      Totals:         0       2       0       0       0
  1111 ;;Total ram usage:        2 bytes
  1112 ;; Hardware stack levels used: 1
  1113 ;; Hardware stack levels required when called: 3
  1114 ;; This function calls:
  1115 ;;		Nothing
  1116 ;; This function is called by:
  1117 ;;		_setup
  1118 ;; This function uses a non-reentrant model
  1119 ;;
  1120                           
  1121     00AC                     _configOsc:	
  1122                           ;psect for function _configOsc
  1123                           
  1124     00AC                     l1116:	
  1125                           ;incstack = 0
  1126                           ; Regs used in _configOsc: [wreg+status,2+status,0]
  1127                           
  1128                           
  1129                           ;config.c: 46:     if(freq == 8){
  1130     00AC  3008               	movlw	8
  1131     00AD  1283               	bcf	3,5	;RP0=0, select bank0
  1132     00AE  1303               	bcf	3,6	;RP1=0, select bank0
  1133     00AF  0620               	xorwf	configOsc@freq,w
  1134     00B0  0421               	iorwf	configOsc@freq+1,w
  1135     00B1  1D03               	btfss	3,2
  1136     00B2  28B4               	goto	u431
  1137     00B3  28B5               	goto	u430
  1138     00B4                     u431:
  1139     00B4  28BA               	goto	l1120
  1140     00B5                     u430:
  1141     00B5                     l1118:
  1142                           
  1143                           ;config.c: 47:         OSCCONbits.IRCF = 0b111;
  1144     00B5  3070               	movlw	112
  1145     00B6  1683               	bsf	3,5	;RP0=1, select bank1
  1146     00B7  1303               	bcf	3,6	;RP1=0, select bank1
  1147     00B8  048F               	iorwf	15,f	;volatile
  1148                           
  1149                           ;config.c: 48:     }
  1150     00B9  291B               	goto	l1148
  1151     00BA                     l1120:
  1152     00BA  3004               	movlw	4
  1153     00BB  0620               	xorwf	configOsc@freq,w
  1154     00BC  0421               	iorwf	configOsc@freq+1,w
  1155     00BD  1D03               	btfss	3,2
  1156     00BE  28C0               	goto	u441
  1157     00BF  28C1               	goto	u440
  1158     00C0                     u441:
  1159     00C0  28C8               	goto	l1124
  1160     00C1                     u440:
  1161     00C1                     l1122:
  1162                           
  1163                           ;config.c: 51:         OSCCONbits.IRCF = 0b110;
  1164     00C1  1683               	bsf	3,5	;RP0=1, select bank1
  1165     00C2  1303               	bcf	3,6	;RP1=0, select bank1
  1166     00C3  080F               	movf	15,w	;volatile
  1167     00C4  398F               	andlw	-113
  1168     00C5  3860               	iorlw	96
  1169     00C6  008F               	movwf	15	;volatile
  1170                           
  1171                           ;config.c: 52:     }
  1172     00C7  291B               	goto	l1148
  1173     00C8                     l1124:
  1174     00C8  3002               	movlw	2
  1175     00C9  0620               	xorwf	configOsc@freq,w
  1176     00CA  0421               	iorwf	configOsc@freq+1,w
  1177     00CB  1D03               	btfss	3,2
  1178     00CC  28CE               	goto	u451
  1179     00CD  28CF               	goto	u450
  1180     00CE                     u451:
  1181     00CE  28D6               	goto	l1128
  1182     00CF                     u450:
  1183     00CF                     l1126:
  1184                           
  1185                           ;config.c: 55:         OSCCONbits.IRCF = 0b101;
  1186     00CF  1683               	bsf	3,5	;RP0=1, select bank1
  1187     00D0  1303               	bcf	3,6	;RP1=0, select bank1
  1188     00D1  080F               	movf	15,w	;volatile
  1189     00D2  398F               	andlw	-113
  1190     00D3  3850               	iorlw	80
  1191     00D4  008F               	movwf	15	;volatile
  1192                           
  1193                           ;config.c: 56:     }
  1194     00D5  291B               	goto	l1148
  1195     00D6                     l1128:
  1196     00D6  0320               	decf	configOsc@freq,w
  1197     00D7  0421               	iorwf	configOsc@freq+1,w
  1198     00D8  1D03               	btfss	3,2
  1199     00D9  28DB               	goto	u461
  1200     00DA  28DC               	goto	u460
  1201     00DB                     u461:
  1202     00DB  28E3               	goto	l1132
  1203     00DC                     u460:
  1204     00DC                     l1130:
  1205                           
  1206                           ;config.c: 59:         OSCCONbits.IRCF = 0b100;
  1207     00DC  1683               	bsf	3,5	;RP0=1, select bank1
  1208     00DD  1303               	bcf	3,6	;RP1=0, select bank1
  1209     00DE  080F               	movf	15,w	;volatile
  1210     00DF  398F               	andlw	-113
  1211     00E0  3840               	iorlw	64
  1212     00E1  008F               	movwf	15	;volatile
  1213                           
  1214                           ;config.c: 60:     }
  1215     00E2  291B               	goto	l1148
  1216     00E3                     l1132:
  1217     00E3  30F4               	movlw	244
  1218     00E4  0620               	xorwf	configOsc@freq,w
  1219     00E5  1D03               	skipz
  1220     00E6  28EB               	goto	u471
  1221     00E7  0321               	decf	configOsc@freq+1,w
  1222     00E8  1D03               	btfss	3,2
  1223     00E9  28EB               	goto	u471
  1224     00EA  28EC               	goto	u470
  1225     00EB                     u471:
  1226     00EB  28F3               	goto	l1136
  1227     00EC                     u470:
  1228     00EC                     l1134:
  1229                           
  1230                           ;config.c: 63:         OSCCONbits.IRCF = 0b011;
  1231     00EC  1683               	bsf	3,5	;RP0=1, select bank1
  1232     00ED  1303               	bcf	3,6	;RP1=0, select bank1
  1233     00EE  080F               	movf	15,w	;volatile
  1234     00EF  398F               	andlw	-113
  1235     00F0  3830               	iorlw	48
  1236     00F1  008F               	movwf	15	;volatile
  1237                           
  1238                           ;config.c: 64:     }
  1239     00F2  291B               	goto	l1148
  1240     00F3                     l1136:
  1241     00F3  30FA               	movlw	250
  1242     00F4  0620               	xorwf	configOsc@freq,w
  1243     00F5  0421               	iorwf	configOsc@freq+1,w
  1244     00F6  1D03               	btfss	3,2
  1245     00F7  28F9               	goto	u481
  1246     00F8  28FA               	goto	u480
  1247     00F9                     u481:
  1248     00F9  2901               	goto	l1140
  1249     00FA                     u480:
  1250     00FA                     l1138:
  1251                           
  1252                           ;config.c: 67:         OSCCONbits.IRCF = 0b010;
  1253     00FA  1683               	bsf	3,5	;RP0=1, select bank1
  1254     00FB  1303               	bcf	3,6	;RP1=0, select bank1
  1255     00FC  080F               	movf	15,w	;volatile
  1256     00FD  398F               	andlw	-113
  1257     00FE  3820               	iorlw	32
  1258     00FF  008F               	movwf	15	;volatile
  1259                           
  1260                           ;config.c: 68:     }
  1261     0100  291B               	goto	l1148
  1262     0101                     l1140:
  1263     0101  307D               	movlw	125
  1264     0102  0620               	xorwf	configOsc@freq,w
  1265     0103  0421               	iorwf	configOsc@freq+1,w
  1266     0104  1D03               	btfss	3,2
  1267     0105  2907               	goto	u491
  1268     0106  2908               	goto	u490
  1269     0107                     u491:
  1270     0107  290F               	goto	l1144
  1271     0108                     u490:
  1272     0108                     l1142:
  1273                           
  1274                           ;config.c: 71:         OSCCONbits.IRCF = 0b001;
  1275     0108  1683               	bsf	3,5	;RP0=1, select bank1
  1276     0109  1303               	bcf	3,6	;RP1=0, select bank1
  1277     010A  080F               	movf	15,w	;volatile
  1278     010B  398F               	andlw	-113
  1279     010C  3810               	iorlw	16
  1280     010D  008F               	movwf	15	;volatile
  1281                           
  1282                           ;config.c: 72:     }
  1283     010E  291B               	goto	l1148
  1284     010F                     l1144:
  1285     010F  301F               	movlw	31
  1286     0110  0620               	xorwf	configOsc@freq,w
  1287     0111  0421               	iorwf	configOsc@freq+1,w
  1288     0112  1D03               	btfss	3,2
  1289     0113  2915               	goto	u501
  1290     0114  2916               	goto	u500
  1291     0115                     u501:
  1292     0115  291B               	goto	l132
  1293     0116                     u500:
  1294     0116                     l1146:
  1295                           
  1296                           ;config.c: 75:         OSCCONbits.IRCF = 0b000;
  1297     0116  308F               	movlw	-113
  1298     0117  1683               	bsf	3,5	;RP0=1, select bank1
  1299     0118  1303               	bcf	3,6	;RP1=0, select bank1
  1300     0119  058F               	andwf	15,f	;volatile
  1301     011A  291B               	goto	l1148
  1302     011B                     l132:
  1303     011B                     l1148:
  1304                           
  1305                           ;config.c: 78:     OSCCONbits.SCS = 1;
  1306     011B  1683               	bsf	3,5	;RP0=1, select bank1
  1307     011C  1303               	bcf	3,6	;RP1=0, select bank1
  1308     011D  140F               	bsf	15,0	;volatile
  1309     011E                     l138:
  1310     011E  0008               	return
  1311     011F                     __end_of_configOsc:
  1312                           
  1313                           	psect	text6
  1314     0210                     __ptext6:	
  1315 ;; *************** function _configIntbits *****************
  1316 ;; Defined at:
  1317 ;;		line 33 in file "config.c"
  1318 ;; Parameters:    Size  Location     Type
  1319 ;;		None
  1320 ;; Auto vars:     Size  Location     Type
  1321 ;;		None
  1322 ;; Return value:  Size  Location     Type
  1323 ;;                  1    wreg      void 
  1324 ;; Registers used:
  1325 ;;		None
  1326 ;; Tracked objects:
  1327 ;;		On entry : 0/0
  1328 ;;		On exit  : 0/0
  1329 ;;		Unchanged: 0/0
  1330 ;; Data sizes:     COMMON   BANK0   BANK1   BANK3   BANK2
  1331 ;;      Params:         0       0       0       0       0
  1332 ;;      Locals:         0       0       0       0       0
  1333 ;;      Temps:          0       0       0       0       0
  1334 ;;      Totals:         0       0       0       0       0
  1335 ;;Total ram usage:        0 bytes
  1336 ;; Hardware stack levels used: 1
  1337 ;; Hardware stack levels required when called: 3
  1338 ;; This function calls:
  1339 ;;		Nothing
  1340 ;; This function is called by:
  1341 ;;		_setup
  1342 ;; This function uses a non-reentrant model
  1343 ;;
  1344                           
  1345     0210                     _configIntbits:	
  1346                           ;psect for function _configIntbits
  1347                           
  1348     0210                     l1114:	
  1349                           ;incstack = 0
  1350                           ; Regs used in _configIntbits: []
  1351                           
  1352                           
  1353                           ;config.c: 34:     INTCONbits.GIE = 1;
  1354     0210  178B               	bsf	11,7	;volatile
  1355                           
  1356                           ;config.c: 35:     INTCONbits.PEIE = 1;
  1357     0211  170B               	bsf	11,6	;volatile
  1358                           
  1359                           ;config.c: 36:     PIE1bits.SSPIE = 1;
  1360     0212  1683               	bsf	3,5	;RP0=1, select bank1
  1361     0213  1303               	bcf	3,6	;RP1=0, select bank1
  1362     0214  158C               	bsf	12,3	;volatile
  1363                           
  1364                           ;config.c: 38:     PIR1bits.SSPIF = 0;
  1365     0215  1283               	bcf	3,5	;RP0=0, select bank0
  1366     0216  1303               	bcf	3,6	;RP1=0, select bank0
  1367     0217  118C               	bcf	12,3	;volatile
  1368     0218                     l120:	
  1369                           ;config.c: 40:     return;
  1370                           
  1371     0218  0008               	return
  1372     0219                     __end_of_configIntbits:
  1373                           
  1374                           	psect	text7
  1375     0015                     __ptext7:	
  1376 ;; *************** function _adc_init *****************
  1377 ;; Defined at:
  1378 ;;		line 3 in file "ADC.c"
  1379 ;; Parameters:    Size  Location     Type
  1380 ;;  channel         2    0[BANK0 ] int 
  1381 ;;  clock           2    2[BANK0 ] int 
  1382 ;; Auto vars:     Size  Location     Type
  1383 ;;		None
  1384 ;; Return value:  Size  Location     Type
  1385 ;;                  1    wreg      void 
  1386 ;; Registers used:
  1387 ;;		wreg, status,2, status,0
  1388 ;; Tracked objects:
  1389 ;;		On entry : 0/0
  1390 ;;		On exit  : 0/0
  1391 ;;		Unchanged: 0/0
  1392 ;; Data sizes:     COMMON   BANK0   BANK1   BANK3   BANK2
  1393 ;;      Params:         0       4       0       0       0
  1394 ;;      Locals:         0       0       0       0       0
  1395 ;;      Temps:          0       2       0       0       0
  1396 ;;      Totals:         0       6       0       0       0
  1397 ;;Total ram usage:        6 bytes
  1398 ;; Hardware stack levels used: 1
  1399 ;; Hardware stack levels required when called: 3
  1400 ;; This function calls:
  1401 ;;		Nothing
  1402 ;; This function is called by:
  1403 ;;		_setup
  1404 ;; This function uses a non-reentrant model
  1405 ;;
  1406                           
  1407     0015                     _adc_init:	
  1408                           ;psect for function _adc_init
  1409                           
  1410     0015                     l1026:	
  1411                           ;incstack = 0
  1412                           ; Regs used in _adc_init: [wreg+status,2+status,0]
  1413                           
  1414                           
  1415                           ;ADC.c: 6:     ADCON0bits.ADON = 1;
  1416     0015  1283               	bcf	3,5	;RP0=0, select bank0
  1417     0016  1303               	bcf	3,6	;RP1=0, select bank0
  1418     0017  141F               	bsf	31,0	;volatile
  1419     0018                     l1028:
  1420                           
  1421                           ;ADC.c: 9:     _delay((unsigned long)((10)*(8000000/4000.0)));
  1422     0018  301A               	movlw	26
  1423     0019  1283               	bcf	3,5	;RP0=0, select bank0
  1424     001A  1303               	bcf	3,6	;RP1=0, select bank0
  1425     001B  00A5               	movwf	??_adc_init+1
  1426     001C  30F7               	movlw	247
  1427     001D  00A4               	movwf	??_adc_init
  1428     001E                     u617:
  1429     001E  0BA4               	decfsz	??_adc_init,f
  1430     001F  281E               	goto	u617
  1431     0020  0BA5               	decfsz	??_adc_init+1,f
  1432     0021  281E               	goto	u617
  1433     0022  2823               	nop2
  1434     0023                     l1030:
  1435                           
  1436                           ;ADC.c: 12:   if(channel == 0)
  1437     0023  1283               	bcf	3,5	;RP0=0, select bank0
  1438     0024  1303               	bcf	3,6	;RP1=0, select bank0
  1439     0025  0820               	movf	adc_init@channel,w
  1440     0026  0421               	iorwf	adc_init@channel+1,w
  1441     0027  1D03               	btfss	3,2
  1442     0028  282A               	goto	u311
  1443     0029  282B               	goto	u310
  1444     002A                     u311:
  1445     002A  282E               	goto	l1034
  1446     002B                     u310:
  1447     002B                     l1032:
  1448                           
  1449                           ;ADC.c: 13:   ADCON0bits.CHS = 0b0000;
  1450     002B  30C3               	movlw	-61
  1451     002C  059F               	andwf	31,f	;volatile
  1452     002D  2875               	goto	l1058
  1453     002E                     l1034:
  1454     002E  0320               	decf	adc_init@channel,w
  1455     002F  0421               	iorwf	adc_init@channel+1,w
  1456     0030  1D03               	btfss	3,2
  1457     0031  2833               	goto	u321
  1458     0032  2834               	goto	u320
  1459     0033                     u321:
  1460     0033  2839               	goto	l1038
  1461     0034                     u320:
  1462     0034                     l1036:
  1463                           
  1464                           ;ADC.c: 15:   ADCON0bits.CHS = 0b0001;
  1465     0034  081F               	movf	31,w	;volatile
  1466     0035  39C3               	andlw	-61
  1467     0036  3804               	iorlw	4
  1468     0037  009F               	movwf	31	;volatile
  1469     0038  2875               	goto	l1058
  1470     0039                     l1038:
  1471     0039  3002               	movlw	2
  1472     003A  0620               	xorwf	adc_init@channel,w
  1473     003B  0421               	iorwf	adc_init@channel+1,w
  1474     003C  1D03               	btfss	3,2
  1475     003D  283F               	goto	u331
  1476     003E  2840               	goto	u330
  1477     003F                     u331:
  1478     003F  2845               	goto	l1042
  1479     0040                     u330:
  1480     0040                     l1040:
  1481                           
  1482                           ;ADC.c: 17:   ADCON0bits.CHS = 0b0010;
  1483     0040  081F               	movf	31,w	;volatile
  1484     0041  39C3               	andlw	-61
  1485     0042  3808               	iorlw	8
  1486     0043  009F               	movwf	31	;volatile
  1487     0044  2875               	goto	l1058
  1488     0045                     l1042:
  1489     0045  3003               	movlw	3
  1490     0046  0620               	xorwf	adc_init@channel,w
  1491     0047  0421               	iorwf	adc_init@channel+1,w
  1492     0048  1D03               	btfss	3,2
  1493     0049  284B               	goto	u341
  1494     004A  284C               	goto	u340
  1495     004B                     u341:
  1496     004B  2851               	goto	l1046
  1497     004C                     u340:
  1498     004C                     l1044:
  1499                           
  1500                           ;ADC.c: 19:   ADCON0bits.CHS = 0b0011;
  1501     004C  081F               	movf	31,w	;volatile
  1502     004D  39C3               	andlw	-61
  1503     004E  380C               	iorlw	12
  1504     004F  009F               	movwf	31	;volatile
  1505     0050  2875               	goto	l1058
  1506     0051                     l1046:
  1507     0051  3004               	movlw	4
  1508     0052  0620               	xorwf	adc_init@channel,w
  1509     0053  0421               	iorwf	adc_init@channel+1,w
  1510     0054  1D03               	btfss	3,2
  1511     0055  2857               	goto	u351
  1512     0056  2858               	goto	u350
  1513     0057                     u351:
  1514     0057  285D               	goto	l1050
  1515     0058                     u350:
  1516     0058                     l1048:
  1517                           
  1518                           ;ADC.c: 21:   ADCON0bits.CHS = 0b0100;
  1519     0058  081F               	movf	31,w	;volatile
  1520     0059  39C3               	andlw	-61
  1521     005A  3810               	iorlw	16
  1522     005B  009F               	movwf	31	;volatile
  1523     005C  2875               	goto	l1058
  1524     005D                     l1050:
  1525     005D  3005               	movlw	5
  1526     005E  0620               	xorwf	adc_init@channel,w
  1527     005F  0421               	iorwf	adc_init@channel+1,w
  1528     0060  1D03               	btfss	3,2
  1529     0061  2863               	goto	u361
  1530     0062  2864               	goto	u360
  1531     0063                     u361:
  1532     0063  2869               	goto	l1054
  1533     0064                     u360:
  1534     0064                     l1052:
  1535                           
  1536                           ;ADC.c: 23:   ADCON0bits.CHS = 0b0101;
  1537     0064  081F               	movf	31,w	;volatile
  1538     0065  39C3               	andlw	-61
  1539     0066  3814               	iorlw	20
  1540     0067  009F               	movwf	31	;volatile
  1541     0068  2875               	goto	l1058
  1542     0069                     l1054:
  1543     0069  3006               	movlw	6
  1544     006A  0620               	xorwf	adc_init@channel,w
  1545     006B  0421               	iorwf	adc_init@channel+1,w
  1546     006C  1D03               	btfss	3,2
  1547     006D  286F               	goto	u371
  1548     006E  2870               	goto	u370
  1549     006F                     u371:
  1550     006F  2875               	goto	l22
  1551     0070                     u370:
  1552     0070                     l1056:
  1553                           
  1554                           ;ADC.c: 25:   ADCON0bits.CHS = 0b0110;
  1555     0070  081F               	movf	31,w	;volatile
  1556     0071  39C3               	andlw	-61
  1557     0072  3818               	iorlw	24
  1558     0073  009F               	movwf	31	;volatile
  1559     0074  2875               	goto	l1058
  1560     0075                     l22:
  1561     0075                     l1058:
  1562                           
  1563                           ;ADC.c: 28:  ADCON1bits.VCFG1 = 0;
  1564     0075  1683               	bsf	3,5	;RP0=1, select bank1
  1565     0076  1303               	bcf	3,6	;RP1=0, select bank1
  1566     0077  129F               	bcf	31,5	;volatile
  1567     0078                     l1060:
  1568                           
  1569                           ;ADC.c: 29:  ADCON1bits.VCFG0 = 0;
  1570     0078  121F               	bcf	31,4	;volatile
  1571                           
  1572                           ;ADC.c: 32:  if(clock == 1)
  1573     0079  1283               	bcf	3,5	;RP0=0, select bank0
  1574     007A  1303               	bcf	3,6	;RP1=0, select bank0
  1575     007B  0322               	decf	adc_init@clock,w
  1576     007C  0423               	iorwf	adc_init@clock+1,w
  1577     007D  1D03               	btfss	3,2
  1578     007E  2880               	goto	u381
  1579     007F  2881               	goto	u380
  1580     0080                     u381:
  1581     0080  2884               	goto	l1064
  1582     0081                     u380:
  1583     0081                     l1062:
  1584                           
  1585                           ;ADC.c: 33:      ADCON0bits.ADCS = 0b00;
  1586     0081  303F               	movlw	-193
  1587     0082  059F               	andwf	31,f	;volatile
  1588     0083  28A2               	goto	l1074
  1589     0084                     l1064:
  1590     0084  3004               	movlw	4
  1591     0085  0622               	xorwf	adc_init@clock,w
  1592     0086  0423               	iorwf	adc_init@clock+1,w
  1593     0087  1D03               	btfss	3,2
  1594     0088  288A               	goto	u391
  1595     0089  288B               	goto	u390
  1596     008A                     u391:
  1597     008A  2890               	goto	l1068
  1598     008B                     u390:
  1599     008B                     l1066:
  1600                           
  1601                           ;ADC.c: 35:      ADCON0bits.ADCS = 0b01;
  1602     008B  081F               	movf	31,w	;volatile
  1603     008C  393F               	andlw	-193
  1604     008D  3840               	iorlw	64
  1605     008E  009F               	movwf	31	;volatile
  1606     008F  28A2               	goto	l1074
  1607     0090                     l1068:
  1608     0090  3008               	movlw	8
  1609     0091  0622               	xorwf	adc_init@clock,w
  1610     0092  0423               	iorwf	adc_init@clock+1,w
  1611     0093  1903               	btfsc	3,2
  1612     0094  2896               	goto	u401
  1613     0095  2897               	goto	u400
  1614     0096                     u401:
  1615     0096  289E               	goto	l1072
  1616     0097                     u400:
  1617     0097                     l1070:
  1618     0097  3014               	movlw	20
  1619     0098  0622               	xorwf	adc_init@clock,w
  1620     0099  0423               	iorwf	adc_init@clock+1,w
  1621     009A  1D03               	btfss	3,2
  1622     009B  289D               	goto	u411
  1623     009C  289E               	goto	u410
  1624     009D                     u411:
  1625     009D  28A2               	goto	l1074
  1626     009E                     u410:
  1627     009E                     l1072:
  1628                           
  1629                           ;ADC.c: 37:      ADCON0bits.ADCS = 0b10;
  1630     009E  081F               	movf	31,w	;volatile
  1631     009F  393F               	andlw	-193
  1632     00A0  3880               	iorlw	128
  1633     00A1  009F               	movwf	31	;volatile
  1634     00A2                     l1074:
  1635                           
  1636                           ;ADC.c: 40:  PIE1bits.ADIE = 1;
  1637     00A2  1683               	bsf	3,5	;RP0=1, select bank1
  1638     00A3  1303               	bcf	3,6	;RP1=0, select bank1
  1639     00A4  170C               	bsf	12,6	;volatile
  1640     00A5                     l1076:
  1641                           
  1642                           ;ADC.c: 41:  PIR1bits.ADIF = 0;
  1643     00A5  1283               	bcf	3,5	;RP0=0, select bank0
  1644     00A6  1303               	bcf	3,6	;RP1=0, select bank0
  1645     00A7  130C               	bcf	12,6	;volatile
  1646     00A8                     l1078:
  1647                           
  1648                           ;ADC.c: 44:  ADCON1bits.ADFM = 0;
  1649     00A8  1683               	bsf	3,5	;RP0=1, select bank1
  1650     00A9  1303               	bcf	3,6	;RP1=0, select bank1
  1651     00AA  139F               	bcf	31,7	;volatile
  1652     00AB                     l35:
  1653     00AB  0008               	return
  1654     00AC                     __end_of_adc_init:
  1655                           
  1656                           	psect	text8
  1657     0161                     __ptext8:	
  1658 ;; *************** function _isr *****************
  1659 ;; Defined at:
  1660 ;;		line 60 in file "slaveSpi.c"
  1661 ;; Parameters:    Size  Location     Type
  1662 ;;		None
  1663 ;; Auto vars:     Size  Location     Type
  1664 ;;		None
  1665 ;; Return value:  Size  Location     Type
  1666 ;;                  1    wreg      void 
  1667 ;; Registers used:
  1668 ;;		wreg, status,2, status,0, pclath, cstack
  1669 ;; Tracked objects:
  1670 ;;		On entry : 0/0
  1671 ;;		On exit  : 0/0
  1672 ;;		Unchanged: 0/0
  1673 ;; Data sizes:     COMMON   BANK0   BANK1   BANK3   BANK2
  1674 ;;      Params:         0       0       0       0       0
  1675 ;;      Locals:         0       0       0       0       0
  1676 ;;      Temps:          4       0       0       0       0
  1677 ;;      Totals:         4       0       0       0       0
  1678 ;;Total ram usage:        4 bytes
  1679 ;; Hardware stack levels used: 1
  1680 ;; Hardware stack levels required when called: 2
  1681 ;; This function calls:
  1682 ;;		_adc_read
  1683 ;;		_spiRead
  1684 ;;		_spiWrite
  1685 ;; This function is called by:
  1686 ;;		Interrupt level 1
  1687 ;; This function uses a non-reentrant model
  1688 ;;
  1689                           
  1690     0161                     _isr:	
  1691                           ;psect for function _isr
  1692                           
  1693     0161                     i1l1168:
  1694                           
  1695                           ;slaveSpi.c: 62:        if(SSPIF == 1){
  1696     0161  1283               	bcf	3,5	;RP0=0, select bank0
  1697     0162  1303               	bcf	3,6	;RP1=0, select bank0
  1698     0163  1D8C               	btfss	12,3	;volatile
  1699     0164  2966               	goto	u51_21
  1700     0165  2967               	goto	u51_20
  1701     0166                     u51_21:
  1702     0166  298E               	goto	i1l1184
  1703     0167                     u51_20:
  1704     0167                     i1l1170:
  1705                           
  1706                           ;slaveSpi.c: 63:             tipo = spiRead();
  1707     0167  120A  118A  2219  120A  118A  	fcall	_spiRead
  1708     016C  00F9               	movwf	_tipo
  1709     016D                     i1l1172:
  1710                           
  1711                           ;slaveSpi.c: 64:             if(tipo==0){
  1712     016D  0879               	movf	_tipo,w
  1713     016E  1D03               	btfss	3,2
  1714     016F  2971               	goto	u52_21
  1715     0170  2972               	goto	u52_20
  1716     0171                     u52_21:
  1717     0171  2984               	goto	i1l1178
  1718     0172                     u52_20:
  1719     0172                     i1l1174:
  1720                           
  1721                           ;slaveSpi.c: 65:             spiWrite(PORTD);
  1722     0172  1283               	bcf	3,5	;RP0=0, select bank0
  1723     0173  1303               	bcf	3,6	;RP1=0, select bank0
  1724     0174  0808               	movf	8,w	;volatile
  1725     0175  120A  118A  222F  120A  118A  	fcall	_spiWrite
  1726     017A                     i1l1176:
  1727                           
  1728                           ;slaveSpi.c: 66:             _delay((unsigned long)((1)*(8000000/4000.0)));
  1729     017A  3003               	movlw	3
  1730     017B  00F5               	movwf	??_isr+1
  1731     017C  3097               	movlw	151
  1732     017D  00F4               	movwf	??_isr
  1733     017E                     u62_27:
  1734     017E  0BF4               	decfsz	??_isr,f
  1735     017F  297E               	goto	u62_27
  1736     0180  0BF5               	decfsz	??_isr+1,f
  1737     0181  297E               	goto	u62_27
  1738     0182  2983               	nop2
  1739                           
  1740                           ;slaveSpi.c: 67:             }
  1741     0183  298B               	goto	i1l1182
  1742     0184                     i1l1178:
  1743                           
  1744                           ;slaveSpi.c: 69:             spiWrite(contador);
  1745     0184  0878               	movf	_contador,w
  1746     0185  120A  118A  222F  120A  118A  	fcall	_spiWrite
  1747     018A  297A               	goto	i1l1176
  1748     018B                     i1l1182:
  1749                           
  1750                           ;slaveSpi.c: 72:          SSPIF = 0;
  1751     018B  1283               	bcf	3,5	;RP0=0, select bank0
  1752     018C  1303               	bcf	3,6	;RP1=0, select bank0
  1753     018D  118C               	bcf	12,3	;volatile
  1754     018E                     i1l1184:
  1755                           
  1756                           ;slaveSpi.c: 75:        if (ADIF){
  1757     018E  1F0C               	btfss	12,6	;volatile
  1758     018F  2991               	goto	u53_21
  1759     0190  2992               	goto	u53_20
  1760     0191                     u53_21:
  1761     0191  299C               	goto	i1l191
  1762     0192                     u53_20:
  1763     0192                     i1l1186:
  1764                           
  1765                           ;slaveSpi.c: 76:            PORTD = adc_read();
  1766     0192  120A  118A  2206  120A  118A  	fcall	_adc_read
  1767     0197  0870               	movf	?_adc_read,w
  1768     0198  1283               	bcf	3,5	;RP0=0, select bank0
  1769     0199  1303               	bcf	3,6	;RP1=0, select bank0
  1770     019A  0088               	movwf	8	;volatile
  1771     019B                     i1l1188:
  1772                           
  1773                           ;slaveSpi.c: 77:            ADIF = 0;
  1774     019B  130C               	bcf	12,6	;volatile
  1775     019C                     i1l191:
  1776     019C  0877               	movf	??_isr+3,w
  1777     019D  008A               	movwf	10
  1778     019E  0E76               	swapf	??_isr+2,w
  1779     019F  0083               	movwf	3
  1780     01A0  0EFE               	swapf	btemp,f
  1781     01A1  0E7E               	swapf	btemp,w
  1782     01A2  0009               	retfie
  1783     01A3                     __end_of_isr:
  1784                           
  1785                           	psect	intentry
  1786     0004                     __pintentry:	
  1787                           ;incstack = 0
  1788                           ; Regs used in _isr: [wreg+status,2+status,0+pclath+cstack]
  1789                           
  1790     0004                     interrupt_function:
  1791     007E                     saved_w	set	btemp
  1792     0004  00FE               	movwf	btemp
  1793     0005  0E03               	swapf	3,w
  1794     0006  00F6               	movwf	??_isr+2
  1795     0007  080A               	movf	10,w
  1796     0008  00F7               	movwf	??_isr+3
  1797     0009  120A  118A  2961   	ljmp	_isr
  1798                           
  1799                           	psect	text9
  1800     022F                     __ptext9:	
  1801 ;; *************** function _spiWrite *****************
  1802 ;; Defined at:
  1803 ;;		line 26 in file "SPI.c"
  1804 ;; Parameters:    Size  Location     Type
  1805 ;;  dat             1    wreg     unsigned char 
  1806 ;; Auto vars:     Size  Location     Type
  1807 ;;  dat             1    0[COMMON] unsigned char 
  1808 ;; Return value:  Size  Location     Type
  1809 ;;                  1    wreg      void 
  1810 ;; Registers used:
  1811 ;;		wreg
  1812 ;; Tracked objects:
  1813 ;;		On entry : 0/0
  1814 ;;		On exit  : 0/0
  1815 ;;		Unchanged: 0/0
  1816 ;; Data sizes:     COMMON   BANK0   BANK1   BANK3   BANK2
  1817 ;;      Params:         0       0       0       0       0
  1818 ;;      Locals:         1       0       0       0       0
  1819 ;;      Temps:          0       0       0       0       0
  1820 ;;      Totals:         1       0       0       0       0
  1821 ;;Total ram usage:        1 bytes
  1822 ;; Hardware stack levels used: 1
  1823 ;; This function calls:
  1824 ;;		Nothing
  1825 ;; This function is called by:
  1826 ;;		_isr
  1827 ;; This function uses a non-reentrant model
  1828 ;;
  1829                           
  1830     022F                     _spiWrite:	
  1831                           ;psect for function _spiWrite
  1832                           
  1833                           
  1834                           ;incstack = 0
  1835                           ; Regs used in _spiWrite: [wreg]
  1836                           ;spiWrite@dat stored from wreg
  1837     022F  00F0               	movwf	spiWrite@dat
  1838     0230                     i1l936:
  1839                           
  1840                           ;SPI.c: 26: void spiWrite(char dat);SPI.c: 27: {;SPI.c: 28:     SSPBUF = dat;
  1841     0230  0870               	movf	spiWrite@dat,w
  1842     0231  1283               	bcf	3,5	;RP0=0, select bank0
  1843     0232  1303               	bcf	3,6	;RP1=0, select bank0
  1844     0233  0093               	movwf	19	;volatile
  1845     0234                     i1l75:
  1846     0234  0008               	return
  1847     0235                     __end_of_spiWrite:
  1848                           
  1849                           	psect	text10
  1850     0219                     __ptext10:	
  1851 ;; *************** function _spiRead *****************
  1852 ;; Defined at:
  1853 ;;		line 39 in file "SPI.c"
  1854 ;; Parameters:    Size  Location     Type
  1855 ;;		None
  1856 ;; Auto vars:     Size  Location     Type
  1857 ;;		None
  1858 ;; Return value:  Size  Location     Type
  1859 ;;                  1    wreg      unsigned char 
  1860 ;; Registers used:
  1861 ;;		wreg, status,2, status,0, pclath, cstack
  1862 ;; Tracked objects:
  1863 ;;		On entry : 0/0
  1864 ;;		On exit  : 0/0
  1865 ;;		Unchanged: 0/0
  1866 ;; Data sizes:     COMMON   BANK0   BANK1   BANK3   BANK2
  1867 ;;      Params:         0       0       0       0       0
  1868 ;;      Locals:         0       0       0       0       0
  1869 ;;      Temps:          0       0       0       0       0
  1870 ;;      Totals:         0       0       0       0       0
  1871 ;;Total ram usage:        0 bytes
  1872 ;; Hardware stack levels used: 1
  1873 ;; Hardware stack levels required when called: 1
  1874 ;; This function calls:
  1875 ;;		_spiReceiveWait
  1876 ;; This function is called by:
  1877 ;;		_isr
  1878 ;; This function uses a non-reentrant model
  1879 ;;
  1880                           
  1881     0219                     _spiRead:	
  1882                           ;psect for function _spiRead
  1883                           
  1884     0219                     i1l938:	
  1885                           ;incstack = 0
  1886                           ; Regs used in _spiRead: [wreg+status,2+status,0+pclath+cstack]
  1887                           
  1888                           
  1889                           ;SPI.c: 41:     spiReceiveWait();
  1890     0219  120A  118A  2222  120A  118A  	fcall	_spiReceiveWait
  1891     021E                     i1l940:
  1892                           
  1893                           ;SPI.c: 42:     return(SSPBUF);
  1894     021E  1283               	bcf	3,5	;RP0=0, select bank0
  1895     021F  1303               	bcf	3,6	;RP1=0, select bank0
  1896     0220  0813               	movf	19,w	;volatile
  1897     0221                     i1l83:
  1898     0221  0008               	return
  1899     0222                     __end_of_spiRead:
  1900                           
  1901                           	psect	text11
  1902     0222                     __ptext11:	
  1903 ;; *************** function _spiReceiveWait *****************
  1904 ;; Defined at:
  1905 ;;		line 21 in file "SPI.c"
  1906 ;; Parameters:    Size  Location     Type
  1907 ;;		None
  1908 ;; Auto vars:     Size  Location     Type
  1909 ;;		None
  1910 ;; Return value:  Size  Location     Type
  1911 ;;                  1    wreg      void 
  1912 ;; Registers used:
  1913 ;;		None
  1914 ;; Tracked objects:
  1915 ;;		On entry : 0/0
  1916 ;;		On exit  : 0/0
  1917 ;;		Unchanged: 0/0
  1918 ;; Data sizes:     COMMON   BANK0   BANK1   BANK3   BANK2
  1919 ;;      Params:         0       0       0       0       0
  1920 ;;      Locals:         0       0       0       0       0
  1921 ;;      Temps:          0       0       0       0       0
  1922 ;;      Totals:         0       0       0       0       0
  1923 ;;Total ram usage:        0 bytes
  1924 ;; Hardware stack levels used: 1
  1925 ;; This function calls:
  1926 ;;		Nothing
  1927 ;; This function is called by:
  1928 ;;		_spiRead
  1929 ;; This function uses a non-reentrant model
  1930 ;;
  1931                           
  1932     0222                     _spiReceiveWait:	
  1933                           ;psect for function _spiReceiveWait
  1934                           
  1935     0222                     i1l870:	
  1936                           ;incstack = 0
  1937                           ; Regs used in _spiReceiveWait: []
  1938                           
  1939     0222                     i1l69:	
  1940                           ;SPI.c: 23:     while ( !SSPSTATbits.BF );
  1941                           
  1942     0222  1683               	bsf	3,5	;RP0=1, select bank1
  1943     0223  1303               	bcf	3,6	;RP1=0, select bank1
  1944     0224  1C14               	btfss	20,0	;volatile
  1945     0225  2A27               	goto	u13_21
  1946     0226  2A28               	goto	u13_20
  1947     0227                     u13_21:
  1948     0227  2A22               	goto	i1l69
  1949     0228                     u13_20:
  1950     0228                     i1l72:
  1951     0228  0008               	return
  1952     0229                     __end_of_spiReceiveWait:
  1953                           
  1954                           	psect	text12
  1955     0206                     __ptext12:	
  1956 ;; *************** function _adc_read *****************
  1957 ;; Defined at:
  1958 ;;		line 51 in file "ADC.c"
  1959 ;; Parameters:    Size  Location     Type
  1960 ;;		None
  1961 ;; Auto vars:     Size  Location     Type
  1962 ;;		None
  1963 ;; Return value:  Size  Location     Type
  1964 ;;                  2    0[COMMON] int 
  1965 ;; Registers used:
  1966 ;;		wreg
  1967 ;; Tracked objects:
  1968 ;;		On entry : 0/0
  1969 ;;		On exit  : 0/0
  1970 ;;		Unchanged: 0/0
  1971 ;; Data sizes:     COMMON   BANK0   BANK1   BANK3   BANK2
  1972 ;;      Params:         2       0       0       0       0
  1973 ;;      Locals:         0       0       0       0       0
  1974 ;;      Temps:          2       0       0       0       0
  1975 ;;      Totals:         4       0       0       0       0
  1976 ;;Total ram usage:        4 bytes
  1977 ;; Hardware stack levels used: 1
  1978 ;; This function calls:
  1979 ;;		Nothing
  1980 ;; This function is called by:
  1981 ;;		_isr
  1982 ;; This function uses a non-reentrant model
  1983 ;;
  1984                           
  1985     0206                     _adc_read:	
  1986                           ;psect for function _adc_read
  1987                           
  1988     0206                     i1l1152:	
  1989                           ;incstack = 0
  1990                           ; Regs used in _adc_read: [wreg]
  1991                           
  1992                           
  1993                           ;ADC.c: 52:     return ADRESH;
  1994     0206  1283               	bcf	3,5	;RP0=0, select bank0
  1995     0207  1303               	bcf	3,6	;RP1=0, select bank0
  1996     0208  081E               	movf	30,w	;volatile
  1997     0209  00F2               	movwf	??_adc_read
  1998     020A  01F3               	clrf	??_adc_read+1
  1999     020B  0872               	movf	??_adc_read,w
  2000     020C  00F0               	movwf	?_adc_read
  2001     020D  0873               	movf	??_adc_read+1,w
  2002     020E  00F1               	movwf	?_adc_read+1
  2003     020F                     i1l38:
  2004     020F  0008               	return
  2005     0210                     __end_of_adc_read:
  2006     007E                     btemp	set	126	;btemp
  2007     007E                     wtemp0	set	126
  2008                           
  2009                           	psect	idloc
  2010                           
  2011                           ;Config register IDLOC0 @ 0x2000
  2012                           ;	unspecified, using default values
  2013     2000                     	org	8192
  2014     2000  3FFF               	dw	16383
  2015                           
  2016                           ;Config register IDLOC1 @ 0x2001
  2017                           ;	unspecified, using default values
  2018     2001                     	org	8193
  2019     2001  3FFF               	dw	16383
  2020                           
  2021                           ;Config register IDLOC2 @ 0x2002
  2022                           ;	unspecified, using default values
  2023     2002                     	org	8194
  2024     2002  3FFF               	dw	16383
  2025                           
  2026                           ;Config register IDLOC3 @ 0x2003
  2027                           ;	unspecified, using default values
  2028     2003                     	org	8195
  2029     2003  3FFF               	dw	16383
  2030                           
  2031                           	psect	config
  2032                           
  2033                           ;Config register CONFIG1 @ 0x2007
  2034                           ;	Oscillator Selection bits
  2035                           ;	FOSC = INTRC_NOCLKOUT, INTOSCIO oscillator: I/O function on RA6/OSC2/CLKOUT pin, I/O f
      +                          unction on RA7/OSC1/CLKIN
  2036                           ;	Watchdog Timer Enable bit
  2037                           ;	WDTE = OFF, WDT disabled and can be enabled by SWDTEN bit of the WDTCON register
  2038                           ;	Power-up Timer Enable bit
  2039                           ;	PWRTE = OFF, PWRT disabled
  2040                           ;	RE3/MCLR pin function select bit
  2041                           ;	MCLRE = OFF, RE3/MCLR pin function is digital input, MCLR internally tied to VDD
  2042                           ;	Code Protection bit
  2043                           ;	CP = OFF, Program memory code protection is disabled
  2044                           ;	Data Code Protection bit
  2045                           ;	CPD = OFF, Data memory code protection is disabled
  2046                           ;	Brown Out Reset Selection bits
  2047                           ;	BOREN = OFF, BOR disabled
  2048                           ;	Internal External Switchover bit
  2049                           ;	IESO = OFF, Internal/External Switchover mode is disabled
  2050                           ;	Fail-Safe Clock Monitor Enabled bit
  2051                           ;	FCMEN = OFF, Fail-Safe Clock Monitor is disabled
  2052                           ;	Low Voltage Programming Enable bit
  2053                           ;	LVP = OFF, RB3 pin has digital I/O, HV on MCLR must be used for programming
  2054                           ;	In-Circuit Debugger Mode bit
  2055                           ;	DEBUG = 0x1, unprogramme  2056     2007                     	org	8199
  2057     2007  20D4               	dw	8404
  2058                           
  2059                           ;Config register CONFIG2 @ 0x2008
  2060                           ;	Brown-out Reset Selection bit
  2061                           ;	BOR4V = BOR40V, Brown-out Reset set to 4.0V
  2062                           ;	Flash Program Memory Self Write Enable bits
  2063                           ;	WRT = OFF, Write protection off
  2064     2008                     	org	8200
  2065     2008  3FFF               	dw	16383

Data Sizes:
    Strings     0
    Constant    0
    Data        0
    BSS         2
    Persistent  0
    Stack       0

Auto Spaces:
    Space          Size  Autos    Used
    COMMON           14      8      10
    BANK0            80      9       9
    BANK1            80      0       0
    BANK3            96      0       0
    BANK2            96      0       0

Pointer List with Targets:

    None.

Critical Paths under _main in COMMON

    None.

Critical Paths under _isr in COMMON

    _isr->_adc_read

Critical Paths under _main in BANK0

    _setup->_adc_init

Critical Paths under _isr in BANK0

    None.

Critical Paths under _main in BANK1

    None.

Critical Paths under _isr in BANK1

    None.

Critical Paths under _main in BANK3

    None.

Critical Paths under _isr in BANK3

    None.

Critical Paths under _main in BANK2

    None.

Critical Paths under _isr in BANK2

    None.

Call Graph Tables:

 ---------------------------------------------------------------------------------
 (Depth) Function   	        Calls       Base Space   Used Autos Params    Refs
 ---------------------------------------------------------------------------------
 (0) _main                                                 3     3      0    1006
                                              6 BANK0      3     3      0
                              _setup
 ---------------------------------------------------------------------------------
 (1) _setup                                                0     0      0    1006
                           _adc_init
                      _configIntbits
                          _configOsc
                         _configPort
                             _pullup
                            _spiInit
 ---------------------------------------------------------------------------------
 (2) _spiInit                                              4     1      3     360
                                              0 BANK0      4     1      3
 ---------------------------------------------------------------------------------
 (2) _pullup                                               0     0      0       0
 ---------------------------------------------------------------------------------
 (2) _configPort                                           0     0      0       0
 ---------------------------------------------------------------------------------
 (2) _configOsc                                            2     0      2     252
                                              0 BANK0      2     0      2
 ---------------------------------------------------------------------------------
 (2) _configIntbits                                        0     0      0       0
 ---------------------------------------------------------------------------------
 (2) _adc_init                                             6     2      4     394
                                              0 BANK0      6     2      4
 ---------------------------------------------------------------------------------
 Estimated maximum stack depth 2
 ---------------------------------------------------------------------------------
 (Depth) Function   	        Calls       Base Space   Used Autos Params    Refs
 ---------------------------------------------------------------------------------
 (3) _isr                                                  4     4      0      15
                                              4 COMMON     4     4      0
                           _adc_read
                            _spiRead
                           _spiWrite
 ---------------------------------------------------------------------------------
 (4) _spiWrite                                             1     1      0      15
                                              0 COMMON     1     1      0
 ---------------------------------------------------------------------------------
 (4) _spiRead                                              0     0      0       0
                     _spiReceiveWait
 ---------------------------------------------------------------------------------
 (5) _spiReceiveWait                                       0     0      0       0
 ---------------------------------------------------------------------------------
 (4) _adc_read                                             4     2      2       0
                                              0 COMMON     4     2      2
 ---------------------------------------------------------------------------------
 Estimated maximum stack depth 5
 ---------------------------------------------------------------------------------

 Call Graph Graphs:

 _main (ROOT)
   _setup
     _adc_init
     _configIntbits
     _configOsc
     _configPort
     _pullup
     _spiInit

 _isr (ROOT)
   _adc_read
   _spiRead
     _spiReceiveWait
   _spiWrite

 Address spaces:
Name               Size   Autos  Total    Cost      Usage
BITCOMMON            E      0       0       0        0.0%
EEDATA             100      0       0       0        0.0%
NULL                 0      0       0       0        0.0%
CODE                 0      0       0       0        0.0%
COMMON               E      8       A       1       71.4%
BITSFR0              0      0       0       1        0.0%
SFR0                 0      0       0       1        0.0%
BITSFR1              0      0       0       2        0.0%
SFR1                 0      0       0       2        0.0%
STACK                0      0       0       2        0.0%
ABS                  0      0      13       3        0.0%
BITBANK0            50      0       0       4        0.0%
BITSFR3              0      0       0       4        0.0%
SFR3                 0      0       0       4        0.0%
BANK0               50      9       9       5       11.2%
BITSFR2              0      0       0       5        0.0%
SFR2                 0      0       0       5        0.0%
BITBANK1            50      0       0       6        0.0%
BANK1               50      0       0       7        0.0%
BITBANK3            60      0       0       8        0.0%
BANK3               60      0       0       9        0.0%
BITBANK2            60      0       0      10        0.0%
BANK2               60      0       0      11        0.0%
DATA                 0      0      13      12        0.0%


Microchip Technology PIC Macro Assembler V2.40 build 20220703182018 
Symbol Table                                                                                   Tue Aug 01 21:55:20 2023

            _SSPSTATbits 0094                       l22 0075                       l35 00AB  
                     l65 01EF                       l66 01F4                      l120 0218  
                    l114 0205                      l132 011B                      l212 01D6  
                    l204 0149                      l117 022E                      l138 011E  
                    l198 0145                      l199 013C                      _RB0 0030  
                    _RB1 0031                      u310 002B                      u311 002A  
                    u400 0097                      u320 0034                      u401 0096  
                    u321 0033                      u410 009E                      u330 0040  
                    u411 009D                      u331 003F                      u340 004C  
                    u500 0116                      u420 01E3                      u341 004B  
                    u501 0115                      u421 01E2                      u350 0058  
                    u430 00B5                      u351 0057                      u431 00B4  
                    u360 0064                      u440 00C1                      u361 0063  
                    u441 00C0                      u370 0070                      u450 00CF  
                    u371 006F                      u451 00CE                      u380 0081  
                    u460 00DC                      u540 012A                      u381 0080  
                    u461 00DB                      u541 0129                      u390 008B  
                    u470 00EC                      u550 013C                      u391 008A  
                    u471 00EB                      u607 0157                      u551 013B  
                    u480 00FA                      u560 0140                      u617 001E  
                    u481 00F9                      u561 013F                      u490 0108  
                    u570 0149                      u491 0107                      u571 0148  
                    u580 014D                      u581 014C                      u597 0130  
                    _isr 0161                     l1100 0200                     l1030 0023  
                   l1102 0201                     l1110 022C                     l1040 0040  
                   l1032 002B                     l1120 00BA                     l1104 0204  
                   l1050 005D                     l1042 0045                     l1034 002E  
                   l1026 0015                     l1114 0210                     l1130 00DC  
                   l1122 00C1                     l1202 0140                     l1060 0078  
                   l1052 0064                     l1044 004C                     l1036 0034  
                   l1028 0018                     l1140 0101                     l1132 00E3  
                   l1124 00C8                     l1116 00AC                     l1108 0229  
                   l1070 0097                     l1062 0081                     l1054 0069  
                   l1046 0051                     l1038 0039                     l1142 0108  
                   l1134 00EC                     l1126 00CF                     l1118 00B5  
                   l1206 014D                     l1072 009E                     l1064 0084  
                   l1056 0070                     l1048 0058                     l1144 010F  
                   l1136 00F3                     l1128 00D6                     l1160 01B8  
                   l1208 014F                     l1066 008B                     l1074 00A2  
                   l1058 0075                     l1146 0116                     l1138 00FA  
                   l1090 01EE                     l1082 01DA                     l1162 01BD  
                   l1076 00A5                     l1068 0090                     l1148 011B  
                   l1092 01F5                     l1084 01E3                     l1164 01CB  
                   l1156 01A3                     l1078 00A8                     l1094 01F9  
                   l1086 01E7                     l1158 01B3                     l1190 011F  
                   l1096 01FA                     l1088 01E9                     l1192 0124  
                   l1098 01FE                     l1194 012A                     l1196 0135  
                   l1198 0138                     _ADIF 0066                     ?_isr 0070  
                   i1l38 020F                     i1l72 0228                     i1l83 0221  
                   i1l75 0234                     i1l69 0222                     _main 011F  
                   _tipo 0079                     btemp 007E                     start 000C  
                  ??_isr 0074            configOsc@freq 0020                    ?_main 0070  
                  _ANSEL 0188                    i1l191 019C                    i1l940 021E  
                  i1l870 0222                    i1l936 0230                    i1l938 0219  
                  u13_20 0228                    u13_21 0227                    u51_20 0167  
                  u51_21 0166                    _PORTB 0006                    _PORTC 0007  
                  _PORTD 0008                    u52_20 0172                    u52_21 0171  
                  u53_20 0192                    u53_21 0191                    u62_27 017E  
                  _TRISA 0085                    _TRISB 0086                    _TRISD 0088  
                  _SSPIF 0063          ??_configIntbits 0020                    _setup 01A3  
                  pclath 000A          __end_of_spiInit 01F5          __end_of_spiRead 0222  
                  status 0003                    wtemp0 007E          __initialization 000F  
           __end_of_main 0161                   ??_main 0026                   _ADRESH 001E  
                 ?_setup 0070                   _ANSELH 0189         __end_of_adc_init 00AC  
       __end_of_adc_read 0210                   i1l1152 0206                   i1l1170 0167  
                 i1l1172 016D                   i1l1182 018B                   i1l1174 0172  
                 i1l1176 017A                   i1l1184 018E                   i1l1168 0161  
                 i1l1186 0192                   i1l1178 0184                   i1l1188 019B  
                 _TRISC3 043B                   _TRISC5 043D                   _SSPCON 0014  
                 _SSPBUF 0013                   _pullup 0229                   saved_w 007E  
       __end_of_spiWrite 0235                ??_spiInit 0023                ??_spiRead 0070  
__end_of__initialization 0011           __pcstackCOMMON 0070            __end_of_setup 01D7  
         _OPTION_REGbits 0081                  ??_setup 0026               __pmaintext 011F  
             __pintentry 0004                ?_adc_init 0020                ?_adc_read 0070  
                ?_pullup 0070               _configPort 01F5                  _SSPSTAT 0094  
      __end_of_configOsc 011F                ?_spiWrite 0070               ??_adc_init 0024  
             ??_adc_read 0072                  __ptext1 01A3                  __ptext2 01D7  
                __ptext3 0229                  __ptext4 01F5                  __ptext5 00AC  
                __ptext6 0210                  __ptext7 0015                  __ptext8 0161  
                __ptext9 022F                  _spiInit 01D7                  _spiRead 0219  
  __end_of_configIntbits 0219     end_of_initialization 0011               ??_spiWrite 0070  
            ?_configPort 0070              spiWrite@dat 0070           _spiReceiveWait 0222  
         __end_of_pullup 022F      start_initialization 000F              __end_of_isr 01A3  
 __end_of_spiReceiveWait 0229          adc_init@channel 0020                 ??_pullup 0020  
            __pbssCOMMON 0078                ___latbits 0002            __pcstackBANK0 0020  
          adc_init@clock 0022          ?_spiReceiveWait 0070                _configOsc 00AC  
               ?_spiInit 0020                 ?_spiRead 0070     spiInit@sTransmitEdge 0022  
      interrupt_function 0004                 _IOCBbits 0096                 _PIE1bits 008C  
     spiInit@sDataSample 0020                 _PIR1bits 000C               ?_configOsc 0020  
             _ADCON0bits 001F               _ADCON1bits 009F                 _WPUBbits 0095  
           ??_configPort 0020       __end_of_configPort 0206                 _adc_init 0015  
               _adc_read 0206                 __ptext10 0219                 __ptext11 0222  
               __ptext12 0206                 _contador 0078                 _spiWrite 022F  
           spiInit@sType 0023              ??_configOsc 0022        spiInit@sClockIdle 0021  
             _INTCONbits 000B            _configIntbits 0210                 intlevel1 0000  
       ??_spiReceiveWait 0070               _OSCCONbits 008F           ?_configIntbits 0070  
